target datalayout = "e-m:e-p270:32:32-p271:32:32-p272:64:64-i64:64-i128:128-f80:128-n8:16:32:64-S128"
target triple = "x86_64-pc-linux-gnu"

%struct._dcerpc_info = type { ptr, i32, i64, i8, i32, i32, i32, i32, i32, i32, i32, i32, i32, i32, ptr, ptr, ptr }
%struct._packet_info = type { ptr, ptr, i32, i32, %struct.nstime_t, %struct.nstime_t, %struct.nstime_t, i32, ptr, ptr, ptr, ptr, %struct._address, %struct._address, %struct._address, %struct._address, %struct._address, %struct._address, i32, ptr, i32, %struct.anon, i32, i32, i32, i32, ptr, i32, ptr, ptr, i16, i16, i32, i32, i16, i32, i32, ptr, ptr, ptr, i8, i8, i16, i16, i16, i32, i16, i16, ptr, ptr, ptr, ptr, ptr, i32 }
%struct.nstime_t = type { i64, i32 }
%struct._address = type { i32, i32, ptr, ptr }
%struct.anon = type { i8, [3 x i8] }

@hf_keybuffer = internal global i32 0, align 4
@hf_keybuffer_size = internal global i32 0, align 4
@.str.755 = private unnamed_addr constant [1 x i8] zeroinitializer, align 1

; Function Attrs: nounwind uwtable
define internal i32 @dissect_spoolss_uint16uni(ptr noundef %0, i32 noundef %1, ptr noundef %2, ptr noundef %3, ptr noundef %4, ptr noundef %5, i32 noundef %6) #0 {
  %8 = alloca i32, align 4
  %9 = alloca ptr, align 8
  %10 = alloca i32, align 4
  %11 = alloca ptr, align 8
  %12 = alloca ptr, align 8
  %13 = alloca ptr, align 8
  %14 = alloca ptr, align 8
  %15 = alloca i32, align 4
  %16 = alloca i32, align 4
  %17 = alloca i32, align 4
  %18 = alloca ptr, align 8
  store ptr %0, ptr %9, align 8
  store i32 %1, ptr %10, align 4
  store ptr %2, ptr %11, align 8
  store ptr %3, ptr %12, align 8
  store ptr %4, ptr %13, align 8
  store ptr %5, ptr %14, align 8
  store i32 %6, ptr %15, align 4
  %19 = load i32, ptr %10, align 4
  %20 = srem i32 %19, 2
  %21 = icmp ne i32 %20, 0
  br i1 %21, label %22, label %28

22:                                               ; preds = %7
  %23 = load i32, ptr %10, align 4
  %24 = srem i32 %23, 2
  %25 = sub i32 2, %24
  %26 = load i32, ptr %10, align 4
  %27 = add i32 %26, %25
  store i32 %27, ptr %10, align 4
  br label %28

28:                                               ; preds = %22, %7
  %29 = load ptr, ptr %9, align 8
  %30 = load i32, ptr %10, align 4
  %31 = call i32 @tvb_reported_length_remaining(ptr noundef %29, i32 noundef %30)
  store i32 %31, ptr %17, align 4
  %32 = load i32, ptr %17, align 4
  %33 = icmp sle i32 %32, 0
  br i1 %33, label %34, label %45

34:                                               ; preds = %28
  %35 = load ptr, ptr %14, align 8
  %36 = icmp ne ptr %35, null
  br i1 %36, label %37, label %43

37:                                               ; preds = %34
  %38 = load ptr, ptr %11, align 8
  %39 = getelementptr inbounds %struct._packet_info, ptr %38, i32 0, i32 50
  %40 = load ptr, ptr %39, align 8
  %41 = call noalias ptr @wmem_strdup(ptr noundef %40, ptr noundef @.str.755)
  %42 = load ptr, ptr %14, align 8
  store ptr %41, ptr %42, align 8
  br label %43

43:                                               ; preds = %37, %34
  %44 = load i32, ptr %10, align 4
  store i32 %44, ptr %8, align 4
  br label %75

45:                                               ; preds = %28
  %46 = load ptr, ptr %11, align 8
  %47 = getelementptr inbounds %struct._packet_info, ptr %46, i32 0, i32 50
  %48 = load ptr, ptr %47, align 8
  %49 = load ptr, ptr %9, align 8
  %50 = load i32, ptr %10, align 4
  %51 = load i32, ptr %17, align 4
  %52 = call ptr @tvb_get_string_enc(ptr noundef %48, ptr noundef %49, i32 noundef %50, i32 noundef %51, i32 noundef -2147483644)
  store ptr %52, ptr %18, align 8
  %53 = load ptr, ptr %18, align 8
  %54 = call i64 @strlen(ptr noundef %53) #4
  %55 = trunc i64 %54 to i32
  store i32 %55, ptr %16, align 4
  %56 = load ptr, ptr %12, align 8
  %57 = load i32, ptr %15, align 4
  %58 = load ptr, ptr %9, align 8
  %59 = load i32, ptr %10, align 4
  %60 = load i32, ptr %16, align 4
  %61 = mul i32 %60, 2
  %62 = load ptr, ptr %18, align 8
  %63 = call ptr @proto_tree_add_string(ptr noundef %56, i32 noundef %57, ptr noundef %58, i32 noundef %59, i32 noundef %61, ptr noundef %62)
  %64 = load ptr, ptr %14, align 8
  %65 = icmp ne ptr %64, null
  br i1 %65, label %66, label %69

66:                                               ; preds = %45
  %67 = load ptr, ptr %18, align 8
  %68 = load ptr, ptr %14, align 8
  store ptr %67, ptr %68, align 8
  br label %69

69:                                               ; preds = %66, %45
  %70 = load i32, ptr %10, align 4
  %71 = load i32, ptr %16, align 4
  %72 = add i32 %71, 1
  %73 = mul i32 %72, 2
  %74 = add i32 %70, %73
  store i32 %74, ptr %8, align 4
  br label %75

75:                                               ; preds = %69, %43
  %76 = load i32, ptr %8, align 4
  ret i32 %76
}

; Function Attrs: nounwind uwtable
define internal i32 @dissect_spoolss_keybuffer(ptr noundef %0, i32 noundef %1, ptr noundef %2, ptr noundef %3, ptr noundef %4, ptr noundef %5) #0 {
  %7 = alloca i32, align 4
  %8 = alloca ptr, align 8
  %9 = alloca i32, align 4
  %10 = alloca ptr, align 8
  %11 = alloca ptr, align 8
  %12 = alloca ptr, align 8
  %13 = alloca ptr, align 8
  %14 = alloca i32, align 4
  %15 = alloca i32, align 4
  store ptr %0, ptr %8, align 8
  store i32 %1, ptr %9, align 4
  store ptr %2, ptr %10, align 8
  store ptr %3, ptr %11, align 8
  store ptr %4, ptr %12, align 8
  store ptr %5, ptr %13, align 8
  %16 = load ptr, ptr %12, align 8
  %17 = getelementptr inbounds %struct._dcerpc_info, ptr %16, i32 0, i32 4
  %18 = load i32, ptr %17, align 4
  %19 = icmp ne i32 %18, 0
  br i1 %19, label %20, label %22

20:                                               ; preds = %6
  %21 = load i32, ptr %9, align 4
  store i32 %21, ptr %7, align 4
  br label %63

22:                                               ; preds = %6
  %23 = load ptr, ptr %8, align 8
  %24 = load i32, ptr %9, align 4
  %25 = load ptr, ptr %10, align 8
  %26 = load ptr, ptr %11, align 8
  %27 = load ptr, ptr %12, align 8
  %28 = load ptr, ptr %13, align 8
  %29 = load i32, ptr @hf_keybuffer_size, align 4
  %30 = call i32 @dissect_ndr_uint32(ptr noundef %23, i32 noundef %24, ptr noundef %25, ptr noundef %26, ptr noundef %27, ptr noundef %28, i32 noundef %29, ptr noundef %14)
  store i32 %30, ptr %9, align 4
  %31 = load i32, ptr %9, align 4
  %32 = load i32, ptr %14, align 4
  %33 = mul i32 %32, 2
  %34 = add i32 %31, %33
  store i32 %34, ptr %15, align 4
  %35 = load i32, ptr %15, align 4
  %36 = load i32, ptr %9, align 4
  %37 = icmp slt i32 %35, %36
  br i1 %37, label %38, label %43

38:                                               ; preds = %22
  %39 = load ptr, ptr %8, align 8
  %40 = load i32, ptr %9, align 4
  %41 = call i32 @tvb_reported_length_remaining(ptr noundef %39, i32 noundef %40)
  %42 = add i32 %41, 1
  store i32 %42, ptr %15, align 4
  br label %43

43:                                               ; preds = %38, %22
  br label %44

44:                                               ; preds = %53, %43
  %45 = load i32, ptr %9, align 4
  %46 = icmp sgt i32 %45, 0
  br i1 %46, label %47, label %51

47:                                               ; preds = %44
  %48 = load i32, ptr %9, align 4
  %49 = load i32, ptr %15, align 4
  %50 = icmp slt i32 %48, %49
  br label %51

51:                                               ; preds = %47, %44
  %52 = phi i1 [ false, %44 ], [ %50, %47 ]
  br i1 %52, label %53, label %61

53:                                               ; preds = %51
  %54 = load ptr, ptr %8, align 8
  %55 = load i32, ptr %9, align 4
  %56 = load ptr, ptr %10, align 8
  %57 = load ptr, ptr %11, align 8
  %58 = load ptr, ptr %13, align 8
  %59 = load i32, ptr @hf_keybuffer, align 4
  %60 = call i32 @dissect_spoolss_uint16uni(ptr noundef %54, i32 noundef %55, ptr noundef %56, ptr noundef %57, ptr noundef %58, ptr noundef null, i32 noundef %59)
  store i32 %60, ptr %9, align 4
  br label %44, !llvm.loop !12

61:                                               ; preds = %51
  %62 = load i32, ptr %9, align 4
  store i32 %62, ptr %7, align 4
  br label %63

63:                                               ; preds = %61, %20
  %64 = load i32, ptr %7, align 4
  ret i32 %64
}