; Function Attrs: nounwind uwtable
define internal fastcc i32 @dissect_spoolss_keybuffer(ptr noundef %0, i32 noundef %1, ptr noundef %2, ptr noundef %3, ptr noundef %4, ptr noundef %5) unnamed_addr #0 {
  %7 = alloca i32, align 4
  %8 = getelementptr inbounds nuw i8, ptr %4, i64 28
  %9 = load i32, ptr %8, align 4
  %.not = icmp eq i32 %9, 0
  br i1 %.not, label %10, label %.loopexit

10:                                               ; preds = %6
  %11 = load i32, ptr @hf_keybuffer_size, align 4
  %12 = call i32 @dissect_ndr_uint32(ptr noundef %0, i32 noundef %1, ptr noundef %2, ptr noundef %3, ptr noundef nonnull %4, ptr noundef %5, i32 noundef %11, ptr noundef nonnull %7) #5
  %13 = load i32, ptr %7, align 4
  %14 = shl i32 %13, 1
  %15 = add i32 %14, %12
  %16 = icmp slt i32 %15, %12
  br i1 %16, label %17, label %20

17:                                               ; preds = %10
  %18 = call i32 @tvb_reported_length_remaining(ptr noundef %0, i32 noundef %12) #5
  %19 = add i32 %18, 1
  br label %20

20:                                               ; preds = %17, %10
  %.0 = phi i32 [ %19, %17 ], [ %15, %10 ]
  %21 = icmp sgt i32 %12, 0
  %22 = icmp slt i32 %12, %.0
  %23 = select i1 %21, i1 %22, i1 false
  br i1 %23, label %.lr.ph, label %.loopexit

.lr.ph:                                           ; preds = %20
  %24 = getelementptr inbounds nuw i8, ptr %2, i64 408
  br label %25

25:                                               ; preds = %.lr.ph, %dissect_spoolss_uint16uni.exit
  %.02326 = phi i32 [ %12, %.lr.ph ], [ %.0.i, %dissect_spoolss_uint16uni.exit ]
  %26 = load i32, ptr @hf_keybuffer, align 4
  %27 = and i32 %.02326, 1
  %.not.i = icmp eq i32 %27, 0
  %28 = and i32 %.02326, 2147483646
  %29 = add nuw i32 %28, 2
  %.026.i = select i1 %.not.i, i32 %.02326, i32 %29
  %30 = call i32 @tvb_reported_length_remaining(ptr noundef %0, i32 noundef %.026.i) #5
  %31 = icmp slt i32 %30, 1
  br i1 %31, label %dissect_spoolss_uint16uni.exit, label %32

32:                                               ; preds = %25
  %33 = load ptr, ptr %24, align 8
  %34 = call ptr @tvb_get_string_enc(ptr noundef %33, ptr noundef %0, i32 noundef %.026.i, i32 noundef %30, i32 noundef -2147483644) #5
  %35 = call i64 @strlen(ptr noundef nonnull dereferenceable(1) %34) #6
  %36 = trunc i64 %35 to i32
  %37 = shl i32 %36, 1
  %38 = call ptr @proto_tree_add_string(ptr noundef %3, i32 noundef %26, ptr noundef %0, i32 noundef %.026.i, i32 noundef %37, ptr noundef nonnull %34) #5
  %39 = add nuw i32 %.026.i, 2
  %40 = add i32 %39, %37
  br label %dissect_spoolss_uint16uni.exit

dissect_spoolss_uint16uni.exit:                   ; preds = %25, %32
  %.0.i = phi i32 [ %40, %32 ], [ %.026.i, %25 ]
  %41 = icmp sgt i32 %.0.i, 0
  %42 = icmp slt i32 %.0.i, %.0
  %43 = select i1 %41, i1 %42, i1 false
  br i1 %43, label %25, label %.loopexit, !llvm.loop !11

.loopexit:                                        ; preds = %dissect_spoolss_uint16uni.exit, %20, %6
  %.022 = phi i32 [ %1, %6 ], [ %12, %20 ], [ %.0.i, %dissect_spoolss_uint16uni.exit ]
  ret i32 %.022
}